	.file	"parallelSnakes.c"
	.text
.Ltext0:
	.section	.rodata
	.align 8
.LC0:
	.string	"main 5 32 80 2 l1 160 80 2 l2 288 80 2 l3 416 80 2 l4 544 80 2 l5 "
	.text
	.globl	main
	.type	main, @function
main:
.LFB0:
	.file 1 "parallelSnakes.c"
	.loc 1 3 0
	.cfi_startproc
	pushq	%rbp
	.cfi_def_cfa_offset 16
	.cfi_offset 6, -16
	movq	%rsp, %rbp
	.cfi_def_cfa_register 6
	pushq	%rbx
	subq	$696, %rsp
	.cfi_offset 3, -24
	leaq	-688(%rbp), %rax
	movq	$1102416563, (%rax)
	movq	$.LC0, 8(%rax)
	shrq	$3, %rax
	leaq	2147450880(%rax), %rbx
	movl	$-235802127, (%rbx)
	movl	$-185335808, 12(%rbx)
	movl	$-218959118, 16(%rbx)
	movl	$-185335808, 28(%rbx)
	movl	$-218959118, 32(%rbx)
	movl	$-185335808, 44(%rbx)
	movl	$-218959118, 48(%rbx)
	movl	$-185335808, 60(%rbx)
	movl	$-218959118, 64(%rbx)
	movl	$-185335808, 76(%rbx)
	movl	$-202116109, 80(%rbx)
	.loc 1 4 0
	movl	$1000, -692(%rbp)
	.loc 1 5 0
	movl	$0, -696(%rbp)
	.loc 1 6 0
	movabsq	$2314903123004497968, %rax
	movq	%rax, -656(%rbp)
	movabsq	$3467807035426349088, %rax
	movq	%rax, -648(%rbp)
	movabsq	$2314885599537930272, %rax
	movq	%rax, -640(%rbp)
	movabsq	$2319389130445828128, %rax
	movq	%rax, -632(%rbp)
	movabsq	$2314885531086888992, %rax
	movq	%rax, -624(%rbp)
	movabsq	$2314903123004497968, %rax
	movq	%rax, -616(%rbp)
	movabsq	$3467807035426349088, %rax
	movq	%rax, -608(%rbp)
	movabsq	$2314885599537930272, %rax
	movq	%rax, -600(%rbp)
	movabsq	$2319389130445828128, %rax
	movq	%rax, -592(%rbp)
	movq	$538976288, -584(%rbp)
	.loc 1 7 0
	movabsq	$2319389130445828128, %rax
	movq	%rax, -528(%rbp)
	movabsq	$2314885531086888992, %rax
	movq	%rax, -520(%rbp)
	movabsq	$2314903123004497968, %rax
	movq	%rax, -512(%rbp)
	movabsq	$3467807035426349088, %rax
	movq	%rax, -504(%rbp)
	movabsq	$2314885599537930272, %rax
	movq	%rax, -496(%rbp)
	movabsq	$2319389130445828128, %rax
	movq	%rax, -488(%rbp)
	movabsq	$2314885531086888992, %rax
	movq	%rax, -480(%rbp)
	movabsq	$2314903123004497968, %rax
	movq	%rax, -472(%rbp)
	movabsq	$3467807035426349088, %rax
	movq	%rax, -464(%rbp)
	movq	$538976288, -456(%rbp)
	.loc 1 8 0
	movabsq	$3467807035426349088, %rax
	movq	%rax, -400(%rbp)
	movabsq	$2314885599537930272, %rax
	movq	%rax, -392(%rbp)
	movabsq	$2319389130445828128, %rax
	movq	%rax, -384(%rbp)
	movabsq	$2314885531086888992, %rax
	movq	%rax, -376(%rbp)
	movabsq	$2314903123004497968, %rax
	movq	%rax, -368(%rbp)
	movabsq	$3467807035426349088, %rax
	movq	%rax, -360(%rbp)
	movabsq	$2314885599537930272, %rax
	movq	%rax, -352(%rbp)
	movabsq	$2319389130445828128, %rax
	movq	%rax, -344(%rbp)
	movabsq	$2314885531086888992, %rax
	movq	%rax, -336(%rbp)
	movq	$538976304, -328(%rbp)
	.loc 1 9 0
	movabsq	$2314885531086888992, %rax
	movq	%rax, -272(%rbp)
	movabsq	$2314903123004497968, %rax
	movq	%rax, -264(%rbp)
	movabsq	$3467807035426349088, %rax
	movq	%rax, -256(%rbp)
	movabsq	$2314885599537930272, %rax
	movq	%rax, -248(%rbp)
	movabsq	$2319389130445828128, %rax
	movq	%rax, -240(%rbp)
	movabsq	$2314885531086888992, %rax
	movq	%rax, -232(%rbp)
	movabsq	$2314903123004497968, %rax
	movq	%rax, -224(%rbp)
	movabsq	$3467807035426349088, %rax
	movq	%rax, -216(%rbp)
	movabsq	$2314885599537930272, %rax
	movq	%rax, -208(%rbp)
	movq	$538980384, -200(%rbp)
	.loc 1 10 0
	movabsq	$2314885599537930272, %rax
	movq	%rax, -144(%rbp)
	movabsq	$2319389130445828128, %rax
	movq	%rax, -136(%rbp)
	movabsq	$2314885531086888992, %rax
	movq	%rax, -128(%rbp)
	movabsq	$2314903123004497968, %rax
	movq	%rax, -120(%rbp)
	movabsq	$3467807035426349088, %rax
	movq	%rax, -112(%rbp)
	movabsq	$2314885599537930272, %rax
	movq	%rax, -104(%rbp)
	movabsq	$2319389130445828128, %rax
	movq	%rax, -96(%rbp)
	movabsq	$2314885531086888992, %rax
	movq	%rax, -88(%rbp)
	movabsq	$2314903123004497968, %rax
	movq	%rax, -80(%rbp)
	movq	$540024864, -72(%rbp)
	.loc 1 12 0
	jmp	.L2
.L3:
	.loc 1 13 0
	leaq	-656(%rbp), %rax
	movq	%rax, %rdi
	call	puts
	.loc 1 14 0
	leaq	-528(%rbp), %rax
	movq	%rax, %rdi
	call	puts
	.loc 1 15 0
	leaq	-400(%rbp), %rax
	movq	%rax, %rdi
	call	puts
	.loc 1 16 0
	leaq	-272(%rbp), %rax
	movq	%rax, %rdi
	call	puts
	.loc 1 17 0
	leaq	-144(%rbp), %rax
	movq	%rax, %rdi
	call	puts
	.loc 1 18 0
	leaq	-272(%rbp), %rax
	movq	%rax, %rdi
	call	puts
	.loc 1 19 0
	leaq	-400(%rbp), %rax
	movq	%rax, %rdi
	call	puts
	.loc 1 20 0
	leaq	-528(%rbp), %rax
	movq	%rax, %rdi
	call	puts
	.loc 1 21 0
	addl	$1, -696(%rbp)
.L2:
	.loc 1 12 0 discriminator 1
	movl	-696(%rbp), %eax
	cmpl	-692(%rbp), %eax
	jl	.L3
	.loc 1 23 0
	movl	$0, %eax
	.loc 1 3 0
	movl	$0, (%rbx)
	movq	$0, 12(%rbx)
	movq	$0, 28(%rbx)
	movq	$0, 44(%rbx)
	movq	$0, 60(%rbx)
	movq	$0, 76(%rbx)
	.loc 1 24 0
	addq	$696, %rsp
	popq	%rbx
	popq	%rbp
	.cfi_def_cfa 7, 8
	ret
	.cfi_endproc
.LFE0:
	.size	main, .-main
	.type	_GLOBAL__sub_I_00099_0_main, @function
_GLOBAL__sub_I_00099_0_main:
.LFB1:
	.loc 1 24 0
	.cfi_startproc
	pushq	%rbp
	.cfi_def_cfa_offset 16
	.cfi_offset 6, -16
	movq	%rsp, %rbp
	.cfi_def_cfa_register 6
	.loc 1 24 0
	call	__asan_init_v1
	popq	%rbp
	.cfi_def_cfa 7, 8
	ret
	.cfi_endproc
.LFE1:
	.size	_GLOBAL__sub_I_00099_0_main, .-_GLOBAL__sub_I_00099_0_main
	.section	.init_array.00099,"aw"
	.align 8
	.quad	_GLOBAL__sub_I_00099_0_main
	.text
.Letext0:
	.section	.note.GNU-stack,"",@progbits
